target datalayout = "e-m:e-p270:32:32-p271:32:32-p272:64:64-i64:64-i128:128-f80:128-n8:16:32:64-S128"
target triple = "x86_64-pc-linux-gnu"

%"class.gmx::MttkData" = type { %"class.gmx::ICheckpointHelperClient", float, float, float, double, double, double, float, [3 x [3 x float]], float, float, float, ptr, ptr, %"class.std::__cxx11::basic_string" }
%"class.gmx::ICheckpointHelperClient" = type { ptr }
%"class.std::__cxx11::basic_string" = type { %"struct.std::__cxx11::basic_string<char>::_Alloc_hider", i64, %union.anon }
%"struct.std::__cxx11::basic_string<char>::_Alloc_hider" = type { ptr }
%union.anon = type { i64, [8 x i8] }

; Function Attrs: mustprogress nounwind uwtable
define noundef float @_ZNK3gmx8MttkData13kineticEnergyEv(ptr noundef nonnull align 8 dereferenceable(152) %0) #2 align 2 {
  %2 = alloca ptr, align 8
  store ptr %0, ptr %2, align 8, !tbaa !4
  %3 = load ptr, ptr %2, align 8
  %4 = getelementptr inbounds nuw %"class.gmx::MttkData", ptr %3, i32 0, i32 2
  %5 = load float, ptr %4, align 4, !tbaa !713
  %6 = fpext float %5 to double
  %7 = fmul double 5.000000e-01, %6
  %8 = getelementptr inbounds nuw %"class.gmx::MttkData", ptr %3, i32 0, i32 2
  %9 = load float, ptr %8, align 4, !tbaa !713
  %10 = fpext float %9 to double
  %11 = fmul double %7, %10
  %12 = getelementptr inbounds nuw %"class.gmx::MttkData", ptr %3, i32 0, i32 3
  %13 = load float, ptr %12, align 8, !tbaa !705
  %14 = fpext float %13 to double
  %15 = fdiv double %11, %14
  %16 = fptrunc double %15 to float
  ret float %16
}

; Function Attrs: mustprogress uwtable
define void @_ZN3gmx8MttkData17calculateIntegralEf(ptr noundef nonnull align 8 dereferenceable(152) %0, float noundef %1) #1 align 2 {
  %3 = alloca ptr, align 8
  %4 = alloca float, align 4
  store ptr %0, ptr %3, align 8, !tbaa !4
  store float %1, ptr %4, align 4, !tbaa !111
  %5 = load ptr, ptr %3, align 8
  %6 = call noundef float @_ZNK3gmx8MttkData13kineticEnergyEv(ptr noundef nonnull align 8 dereferenceable(152) %5)
  %7 = fpext float %6 to double
  %8 = load float, ptr %4, align 4, !tbaa !111
  %9 = getelementptr inbounds nuw %"class.gmx::MttkData", ptr %5, i32 0, i32 7
  %10 = load float, ptr %9, align 8, !tbaa !716
  %11 = fmul float %8, %10
  %12 = fpext float %11 to double
  %13 = fdiv double %12, 0x40309AFAE1F7C60E
  %14 = fadd double %7, %13
  %15 = getelementptr inbounds nuw %"class.gmx::MttkData", ptr %5, i32 0, i32 5
  store double %14, ptr %15, align 8, !tbaa !697
  %16 = getelementptr inbounds nuw %"class.gmx::MttkData", ptr %5, i32 0, i32 4
  %17 = load double, ptr %16, align 8, !tbaa !714
  %18 = getelementptr inbounds nuw %"class.gmx::MttkData", ptr %5, i32 0, i32 6
  store double %17, ptr %18, align 8, !tbaa !715
  ret void
}