; Function Attrs: mustprogress nofree norecurse nosync nounwind willreturn memory(argmem: readwrite) uwtable
define void @_ZN3gmx8MttkData17calculateIntegralEf(ptr noundef nonnull align 8 captures(none) dereferenceable(152) initializes((32, 48)) %0, float noundef %1) local_unnamed_addr #23 align 2 {
  %3 = getelementptr inbounds nuw i8, ptr %0, i64 12
  %4 = load float, ptr %3, align 4, !tbaa !328
  %5 = fpext float %4 to double
  %6 = fmul double %5, 5.000000e-01
  %7 = fmul double %6, %5
  %8 = getelementptr inbounds nuw i8, ptr %0, i64 16
  %9 = load float, ptr %8, align 8, !tbaa !326
  %10 = fpext float %9 to double
  %11 = fdiv double %7, %10
  %12 = fptrunc double %11 to float
  %13 = fpext float %12 to double
  %14 = getelementptr inbounds nuw i8, ptr %0, i64 48
  %15 = load float, ptr %14, align 8, !tbaa !329
  %16 = fmul float %1, %15
  %17 = fpext float %16 to double
  %18 = fdiv double %17, 0x40309AFAE1F7C60E
  %19 = fadd double %18, %13
  %20 = getelementptr inbounds nuw i8, ptr %0, i64 32
  store double %19, ptr %20, align 8, !tbaa !318
  %21 = getelementptr inbounds nuw i8, ptr %0, i64 24
  %22 = load double, ptr %21, align 8, !tbaa !334
  %23 = getelementptr inbounds nuw i8, ptr %0, i64 40
  store double %22, ptr %23, align 8, !tbaa !333
  ret void
}